target datalayout = "e-m:e-p270:32:32-p271:32:32-p272:64:64-i64:64-i128:128-f80:128-n8:16:32:64-S128"
target triple = "x86_64-pc-linux-gnu"

%struct.jpeg_decompress_struct = type { ptr, ptr, ptr, ptr, i32, i32, ptr, i32, i32, i32, i32, i32, i32, i32, double, i32, i32, i32, i32, i32, i32, i32, i32, i32, i32, i32, i32, i32, i32, i32, i32, i32, i32, ptr, i32, i32, i32, i32, i32, ptr, [4 x ptr], [4 x ptr], [4 x ptr], i32, ptr, i32, i32, [16 x i8], [16 x i8], [16 x i8], i32, i32, i8, i8, i8, i16, i16, i32, i8, i32, ptr, i32, i32, i32, i32, ptr, i32, [4 x ptr], i32, i32, i32, [10 x i32], i32, i32, i32, i32, i32, ptr, ptr, ptr, ptr, ptr, ptr, ptr, ptr, ptr, ptr, ptr }
%struct.my_post_controller = type { %struct.jpeg_d_post_controller, ptr, ptr, i32, i32, i32 }
%struct.jpeg_d_post_controller = type { ptr, ptr, ptr, ptr }
%struct.jpeg_upsampler = type { ptr, ptr, ptr, ptr, i32 }
%struct.jpeg_color_quantizer = type { ptr, ptr, ptr, ptr, ptr }

; Function Attrs: nounwind uwtable
define internal void @post_process_1pass(ptr noundef %0, ptr noundef %1, ptr noundef %2, i32 noundef %3, ptr noundef %4, ptr noundef %5, i32 noundef %6) #0 {
  %8 = alloca ptr, align 8
  %9 = alloca ptr, align 8
  %10 = alloca ptr, align 8
  %11 = alloca i32, align 4
  %12 = alloca ptr, align 8
  %13 = alloca ptr, align 8
  %14 = alloca i32, align 4
  %15 = alloca ptr, align 8
  %16 = alloca i32, align 4
  %17 = alloca i32, align 4
  store ptr %0, ptr %8, align 8, !tbaa !3
  store ptr %1, ptr %9, align 8, !tbaa !68
  store ptr %2, ptr %10, align 8, !tbaa !70
  store i32 %3, ptr %11, align 4, !tbaa !8
  store ptr %4, ptr %12, align 8, !tbaa !71
  store ptr %5, ptr %13, align 8, !tbaa !70
  store i32 %6, ptr %14, align 4, !tbaa !8
  call void @llvm.lifetime.start.p0(i64 8, ptr %15) #3
  %18 = load ptr, ptr %8, align 8, !tbaa !3
  %19 = getelementptr inbounds nuw %struct.jpeg_decompress_struct, ptr %18, i32 0, i32 80
  %20 = load ptr, ptr %19, align 8, !tbaa !46
  store ptr %20, ptr %15, align 8, !tbaa !45
  call void @llvm.lifetime.start.p0(i64 4, ptr %16) #3
  call void @llvm.lifetime.start.p0(i64 4, ptr %17) #3
  %21 = load i32, ptr %14, align 4, !tbaa !8
  %22 = load ptr, ptr %13, align 8, !tbaa !70
  %23 = load i32, ptr %22, align 4, !tbaa !8
  %24 = sub i32 %21, %23
  store i32 %24, ptr %17, align 4, !tbaa !8
  %25 = load i32, ptr %17, align 4, !tbaa !8
  %26 = load ptr, ptr %15, align 8, !tbaa !45
  %27 = getelementptr inbounds nuw %struct.my_post_controller, ptr %26, i32 0, i32 3
  %28 = load i32, ptr %27, align 8, !tbaa !55
  %29 = icmp ugt i32 %25, %28
  br i1 %29, label %30, label %34

30:                                               ; preds = %7
  %31 = load ptr, ptr %15, align 8, !tbaa !45
  %32 = getelementptr inbounds nuw %struct.my_post_controller, ptr %31, i32 0, i32 3
  %33 = load i32, ptr %32, align 8, !tbaa !55
  store i32 %33, ptr %17, align 4, !tbaa !8
  br label %34

34:                                               ; preds = %30, %7
  store i32 0, ptr %16, align 4, !tbaa !8
  %35 = load ptr, ptr %8, align 8, !tbaa !3
  %36 = getelementptr inbounds nuw %struct.jpeg_decompress_struct, ptr %35, i32 0, i32 85
  %37 = load ptr, ptr %36, align 8, !tbaa !63
  %38 = getelementptr inbounds nuw %struct.jpeg_upsampler, ptr %37, i32 0, i32 1
  %39 = load ptr, ptr %38, align 8, !tbaa !64
  %40 = load ptr, ptr %8, align 8, !tbaa !3
  %41 = load ptr, ptr %9, align 8, !tbaa !68
  %42 = load ptr, ptr %10, align 8, !tbaa !70
  %43 = load i32, ptr %11, align 4, !tbaa !8
  %44 = load ptr, ptr %15, align 8, !tbaa !45
  %45 = getelementptr inbounds nuw %struct.my_post_controller, ptr %44, i32 0, i32 2
  %46 = load ptr, ptr %45, align 8, !tbaa !52
  %47 = load i32, ptr %17, align 4, !tbaa !8
  call void %39(ptr noundef %40, ptr noundef %41, ptr noundef %42, i32 noundef %43, ptr noundef %46, ptr noundef %16, i32 noundef %47)
  %48 = load ptr, ptr %8, align 8, !tbaa !3
  %49 = getelementptr inbounds nuw %struct.jpeg_decompress_struct, ptr %48, i32 0, i32 87
  %50 = load ptr, ptr %49, align 8, !tbaa !72
  %51 = getelementptr inbounds nuw %struct.jpeg_color_quantizer, ptr %50, i32 0, i32 1
  %52 = load ptr, ptr %51, align 8, !tbaa !73
  %53 = load ptr, ptr %8, align 8, !tbaa !3
  %54 = load ptr, ptr %15, align 8, !tbaa !45
  %55 = getelementptr inbounds nuw %struct.my_post_controller, ptr %54, i32 0, i32 2
  %56 = load ptr, ptr %55, align 8, !tbaa !52
  %57 = load ptr, ptr %12, align 8, !tbaa !71
  %58 = load ptr, ptr %13, align 8, !tbaa !70
  %59 = load i32, ptr %58, align 4, !tbaa !8
  %60 = zext i32 %59 to i64
  %61 = getelementptr inbounds nuw ptr, ptr %57, i64 %60
  %62 = load i32, ptr %16, align 4, !tbaa !8
  call void %52(ptr noundef %53, ptr noundef %56, ptr noundef %61, i32 noundef %62)
  %63 = load i32, ptr %16, align 4, !tbaa !8
  %64 = load ptr, ptr %13, align 8, !tbaa !70
  %65 = load i32, ptr %64, align 4, !tbaa !8
  %66 = add i32 %65, %63
  store i32 %66, ptr %64, align 4, !tbaa !8
  call void @llvm.lifetime.end.p0(i64 4, ptr %17) #3
  call void @llvm.lifetime.end.p0(i64 4, ptr %16) #3
  call void @llvm.lifetime.end.p0(i64 8, ptr %15) #3
  ret void
}