; Function Attrs: nounwind uwtable
define internal void @post_process_1pass(ptr noundef %0, ptr noundef %1, ptr noundef %2, i32 noundef %3, ptr noundef %4, ptr noundef captures(none) %5, i32 noundef %6) #0 {
  %8 = alloca i32, align 4
  %9 = getelementptr inbounds nuw i8, ptr %0, i64 568
  %10 = load ptr, ptr %9, align 8, !tbaa !42
  call void @llvm.lifetime.start.p0(i64 4, ptr nonnull %8) #5
  %11 = load i32, ptr %5, align 4, !tbaa !64
  %12 = sub i32 %6, %11
  %13 = getelementptr inbounds nuw i8, ptr %10, i64 48
  %14 = load i32, ptr %13, align 8, !tbaa !49
  %spec.select = tail call i32 @llvm.umin.i32(i32 %12, i32 %14)
  store i32 0, ptr %8, align 4, !tbaa !64
  %15 = getelementptr inbounds nuw i8, ptr %0, i64 608
  %16 = load ptr, ptr %15, align 8, !tbaa !59
  %17 = getelementptr inbounds nuw i8, ptr %16, i64 8
  %18 = load ptr, ptr %17, align 8, !tbaa !60
  %19 = getelementptr inbounds nuw i8, ptr %10, i64 40
  %20 = load ptr, ptr %19, align 8, !tbaa !56
  call void %18(ptr noundef %0, ptr noundef %1, ptr noundef %2, i32 noundef %3, ptr noundef %20, ptr noundef nonnull %8, i32 noundef %spec.select) #5
  %21 = getelementptr inbounds nuw i8, ptr %0, i64 624
  %22 = load ptr, ptr %21, align 8, !tbaa !65
  %23 = getelementptr inbounds nuw i8, ptr %22, i64 8
  %24 = load ptr, ptr %23, align 8, !tbaa !66
  %25 = load ptr, ptr %19, align 8, !tbaa !56
  %26 = load i32, ptr %5, align 4, !tbaa !64
  %27 = zext i32 %26 to i64
  %28 = getelementptr inbounds nuw ptr, ptr %4, i64 %27
  %29 = load i32, ptr %8, align 4, !tbaa !64
  call void %24(ptr noundef %0, ptr noundef %25, ptr noundef %28, i32 noundef %29) #5
  %30 = load i32, ptr %8, align 4, !tbaa !64
  %31 = load i32, ptr %5, align 4, !tbaa !64
  %32 = add i32 %31, %30
  store i32 %32, ptr %5, align 4, !tbaa !64
  call void @llvm.lifetime.end.p0(i64 4, ptr nonnull %8) #5
  ret void
}